target datalayout = "e-m:e-p270:32:32-p271:32:32-p272:64:64-i64:64-i128:128-f80:128-n8:16:32:64-S128"
target triple = "x86_64-pc-linux-gnu"

%struct.Bnd_Man_t_ = type { i32, i32, i32, i32, i32, i32, i32, i32, i32, i32, i32, i32, i32, i32, i32, i32, i32, i32, i32, i32, i32, ptr, ptr, ptr, ptr, ptr, ptr, ptr, ptr, ptr, ptr, ptr, ptr, ptr, ptr }

@pBnd = global ptr null, align 8
@.str.12 = private unnamed_addr constant [8 x i8] c"\0ASTATS\0A\00", align 1
@.str.13 = private unnamed_addr constant [55 x i8] c"WARNING: multiple equiv nodes on the boundary of spec\0A\00", align 1
@.str.14 = private unnamed_addr constant [55 x i8] c"WARNING: multiple equiv nodes on the boundary of impl\0A\00", align 1
@.str.15 = private unnamed_addr constant [35 x i8] c"WARNING: feedthrough inside patch\0A\00", align 1
@.str.16 = private unnamed_addr constant [41 x i8] c"The outsides of spec and impl are %sEQ.\0A\00", align 1
@.str.17 = private unnamed_addr constant [1 x i8] zeroinitializer, align 1
@.str.18 = private unnamed_addr constant [5 x i8] c"NOT \00", align 1
@.str.19 = private unnamed_addr constant [38 x i8] c"The patched impl and patch are %sEQ.\0A\00", align 1

; Function Attrs: nounwind uwtable
define void @Bnd_ManPrintStats() #0 {
  %1 = alloca ptr, align 8
  %2 = alloca i32, align 4
  %3 = load ptr, ptr @pBnd, align 8
  store ptr %3, ptr %1, align 8
  %4 = call i32 (ptr, ...) @printf(ptr noundef @.str.12)
  store i32 0, ptr %2, align 4
  %5 = load ptr, ptr %1, align 8
  %6 = getelementptr inbounds %struct.Bnd_Man_t_, ptr %5, i32 0, i32 18
  %7 = load i32, ptr %6, align 8
  %8 = icmp sgt i32 %7, 0
  br i1 %8, label %9, label %11

9:                                                ; preds = %0
  store i32 1, ptr %2, align 4
  %10 = call i32 (ptr, ...) @printf(ptr noundef @.str.13)
  br label %11

11:                                               ; preds = %9, %0
  %12 = load ptr, ptr %1, align 8
  %13 = getelementptr inbounds %struct.Bnd_Man_t_, ptr %12, i32 0, i32 19
  %14 = load i32, ptr %13, align 4
  %15 = icmp sgt i32 %14, 0
  br i1 %15, label %16, label %18

16:                                               ; preds = %11
  store i32 1, ptr %2, align 4
  %17 = call i32 (ptr, ...) @printf(ptr noundef @.str.14)
  br label %18

18:                                               ; preds = %16, %11
  %19 = load ptr, ptr %1, align 8
  %20 = getelementptr inbounds %struct.Bnd_Man_t_, ptr %19, i32 0, i32 20
  %21 = load i32, ptr %20, align 8
  %22 = icmp ne i32 %21, 0
  br i1 %22, label %23, label %25

23:                                               ; preds = %18
  store i32 1, ptr %2, align 4
  %24 = call i32 (ptr, ...) @printf(ptr noundef @.str.15)
  br label %25

25:                                               ; preds = %23, %18
  %26 = load ptr, ptr %1, align 8
  %27 = getelementptr inbounds %struct.Bnd_Man_t_, ptr %26, i32 0, i32 16
  %28 = load i32, ptr %27, align 8
  %29 = icmp ne i32 %28, 0
  %30 = select i1 %29, ptr @.str.17, ptr @.str.18
  %31 = call i32 (ptr, ...) @printf(ptr noundef @.str.16, ptr noundef %30)
  %32 = load ptr, ptr %1, align 8
  %33 = getelementptr inbounds %struct.Bnd_Man_t_, ptr %32, i32 0, i32 17
  %34 = load i32, ptr %33, align 4
  %35 = icmp ne i32 %34, 0
  %36 = select i1 %35, ptr @.str.17, ptr @.str.18
  %37 = call i32 (ptr, ...) @printf(ptr noundef @.str.19, ptr noundef %36)
  ret void
}