; Function Attrs: nofree nounwind uwtable
define void @Bnd_ManPrintStats() local_unnamed_addr #6 {
  %1 = load ptr, ptr @pBnd, align 8
  %puts = tail call i32 @puts(ptr nonnull dereferenceable(1) @str.2)
  %2 = getelementptr inbounds nuw i8, ptr %1, i64 72
  %3 = load i32, ptr %2, align 8
  %4 = icmp sgt i32 %3, 0
  br i1 %4, label %5, label %6

5:                                                ; preds = %0
  %puts5 = tail call i32 @puts(ptr nonnull dereferenceable(1) @str.3)
  br label %6

6:                                                ; preds = %5, %0
  %7 = getelementptr inbounds nuw i8, ptr %1, i64 76
  %8 = load i32, ptr %7, align 4
  %9 = icmp sgt i32 %8, 0
  br i1 %9, label %10, label %11

10:                                               ; preds = %6
  %puts6 = tail call i32 @puts(ptr nonnull dereferenceable(1) @str.4)
  br label %11

11:                                               ; preds = %10, %6
  %12 = getelementptr inbounds nuw i8, ptr %1, i64 80
  %13 = load i32, ptr %12, align 8
  %.not = icmp eq i32 %13, 0
  br i1 %.not, label %15, label %14

14:                                               ; preds = %11
  %puts7 = tail call i32 @puts(ptr nonnull dereferenceable(1) @str.5)
  br label %15

15:                                               ; preds = %14, %11
  %16 = getelementptr inbounds nuw i8, ptr %1, i64 64
  %17 = load i32, ptr %16, align 8
  %.not8 = icmp eq i32 %17, 0
  %18 = select i1 %.not8, ptr @.str.18, ptr @.str.17
  %19 = tail call i32 (ptr, ...) @printf(ptr noundef nonnull dereferenceable(1) @.str.16, ptr noundef nonnull %18)
  %20 = getelementptr inbounds nuw i8, ptr %1, i64 68
  %21 = load i32, ptr %20, align 4
  %.not9 = icmp eq i32 %21, 0
  %22 = select i1 %.not9, ptr @.str.18, ptr @.str.17
  %23 = tail call i32 (ptr, ...) @printf(ptr noundef nonnull dereferenceable(1) @.str.19, ptr noundef nonnull %22)
  ret void
}